; Function Attrs: mustprogress nofree norecurse nosync nounwind willreturn memory(read, inaccessiblemem: none) uwtable
define dso_local noundef zeroext i1 @_Z9_ContainsRKSt6vectorIN32pxrInternal_v0_24__pxrReserved__7TfTokenESaIS1_EERKS1_(ptr nocapture noundef nonnull readonly align 8 dereferenceable(24) %0, ptr nocapture noundef nonnull readonly align 8 dereferenceable(8) %1) local_unnamed_addr #7 personality ptr @__gxx_personality_v0 {
  %3 = load ptr, ptr %0, align 8
  %4 = getelementptr inbounds nuw i8, ptr %0, i64 8
  %5 = load ptr, ptr %4, align 8
  %.not5.i.i = icmp eq ptr %3, %5
  br i1 %.not5.i.i, label %_ZSt5countIN9__gnu_cxx17__normal_iteratorIPKN32pxrInternal_v0_24__pxrReserved__7TfTokenESt6vectorIS3_SaIS3_EEEES3_ENSt15iterator_traitsIT_E15difference_typeESB_SB_RKT0_.exit, label %.lr.ph.i.i

.lr.ph.i.i:                                       ; preds = %2
  %6 = load ptr, ptr %1, align 8
  %7 = ptrtoint ptr %6 to i64
  %8 = and i64 %7, -8
  %9 = inttoptr i64 %8 to ptr
  br label %10

10:                                               ; preds = %10, %.lr.ph.i.i
  %.07.i.i = phi i64 [ 0, %.lr.ph.i.i ], [ %spec.select.i.i, %10 ]
  %.sroa.03.06.i.i = phi ptr [ %3, %.lr.ph.i.i ], [ %17, %10 ]
  %11 = load ptr, ptr %.sroa.03.06.i.i, align 8
  %12 = ptrtoint ptr %11 to i64
  %13 = and i64 %12, -8
  %14 = inttoptr i64 %13 to ptr
  %15 = icmp eq ptr %14, %9
  %16 = zext i1 %15 to i64
  %spec.select.i.i = add nuw nsw i64 %.07.i.i, %16
  %17 = getelementptr inbounds i8, ptr %.sroa.03.06.i.i, i64 8
  %.not.i.i = icmp eq ptr %17, %5
  br i1 %.not.i.i, label %_ZSt5countIN9__gnu_cxx17__normal_iteratorIPKN32pxrInternal_v0_24__pxrReserved__7TfTokenESt6vectorIS3_SaIS3_EEEES3_ENSt15iterator_traitsIT_E15difference_typeESB_SB_RKT0_.exit.loopexit, label %10, !llvm.loop !167

_ZSt5countIN9__gnu_cxx17__normal_iteratorIPKN32pxrInternal_v0_24__pxrReserved__7TfTokenESt6vectorIS3_SaIS3_EEEES3_ENSt15iterator_traitsIT_E15difference_typeESB_SB_RKT0_.exit.loopexit: ; preds = %10
  %18 = icmp ne i64 %spec.select.i.i, 0
  br label %_ZSt5countIN9__gnu_cxx17__normal_iteratorIPKN32pxrInternal_v0_24__pxrReserved__7TfTokenESt6vectorIS3_SaIS3_EEEES3_ENSt15iterator_traitsIT_E15difference_typeESB_SB_RKT0_.exit

_ZSt5countIN9__gnu_cxx17__normal_iteratorIPKN32pxrInternal_v0_24__pxrReserved__7TfTokenESt6vectorIS3_SaIS3_EEEES3_ENSt15iterator_traitsIT_E15difference_typeESB_SB_RKT0_.exit: ; preds = %_ZSt5countIN9__gnu_cxx17__normal_iteratorIPKN32pxrInternal_v0_24__pxrReserved__7TfTokenESt6vectorIS3_SaIS3_EEEES3_ENSt15iterator_traitsIT_E15difference_typeESB_SB_RKT0_.exit.loopexit, %2
  %.0.lcssa.i.i = phi i1 [ false, %2 ], [ %18, %_ZSt5countIN9__gnu_cxx17__normal_iteratorIPKN32pxrInternal_v0_24__pxrReserved__7TfTokenESt6vectorIS3_SaIS3_EEEES3_ENSt15iterator_traitsIT_E15difference_typeESB_SB_RKT0_.exit.loopexit ]
  ret i1 %.0.lcssa.i.i
}